target datalayout = "e-m:e-p270:32:32-p271:32:32-p272:64:64-i64:64-i128:128-f80:128-n8:16:32:64-S128"
target triple = "x86_64-pc-linux-gnu"

%struct._lv_slider_t = type { %struct._lv_bar_t, %struct.lv_area_t, %struct.lv_area_t, %struct.lv_point_t, ptr, i8 }
%struct._lv_bar_t = type { %struct._lv_obj_t, i32, i32, i32, i32, %struct.lv_area_t, i8, %struct._lv_bar_anim_t, %struct._lv_bar_anim_t, i8 }
%struct._lv_obj_t = type { ptr, ptr, ptr, ptr, ptr, %struct.lv_area_t, i32, i16, i16 }
%struct._lv_bar_anim_t = type { ptr, i32, i32, i32 }
%struct.lv_area_t = type { i32, i32, i32, i32 }
%struct.lv_point_t = type { i32, i32 }

; Function Attrs: nounwind uwtable
define internal zeroext i1 @is_slider_horizontal(ptr noundef %0) #0 {
  %2 = alloca i1, align 1
  %3 = alloca ptr, align 8
  %4 = alloca ptr, align 8
  %5 = alloca i32, align 4
  store ptr %0, ptr %3, align 8, !tbaa !8
  call void @llvm.lifetime.start.p0(i64 8, ptr %4) #4
  %6 = load ptr, ptr %3, align 8, !tbaa !8
  store ptr %6, ptr %4, align 8, !tbaa !10
  %7 = load ptr, ptr %4, align 8, !tbaa !10
  %8 = getelementptr inbounds nuw %struct._lv_slider_t, ptr %7, i32 0, i32 0
  %9 = getelementptr inbounds nuw %struct._lv_bar_t, ptr %8, i32 0, i32 9
  %10 = load i8, ptr %9, align 8
  %11 = lshr i8 %10, 3
  %12 = and i8 %11, 7
  %13 = zext i8 %12 to i32
  %14 = icmp eq i32 %13, 0
  br i1 %14, label %15, label %21

15:                                               ; preds = %1
  %16 = load ptr, ptr %3, align 8, !tbaa !8
  %17 = call i32 @lv_obj_get_width(ptr noundef %16)
  %18 = load ptr, ptr %3, align 8, !tbaa !8
  %19 = call i32 @lv_obj_get_height(ptr noundef %18)
  %20 = icmp sge i32 %17, %19
  store i1 %20, ptr %2, align 1
  store i32 1, ptr %5, align 4
  br label %32

21:                                               ; preds = %1
  %22 = load ptr, ptr %4, align 8, !tbaa !10
  %23 = getelementptr inbounds nuw %struct._lv_slider_t, ptr %22, i32 0, i32 0
  %24 = getelementptr inbounds nuw %struct._lv_bar_t, ptr %23, i32 0, i32 9
  %25 = load i8, ptr %24, align 8
  %26 = lshr i8 %25, 3
  %27 = and i8 %26, 7
  %28 = zext i8 %27 to i32
  %29 = icmp eq i32 %28, 1
  br i1 %29, label %30, label %31

30:                                               ; preds = %21
  store i1 true, ptr %2, align 1
  store i32 1, ptr %5, align 4
  br label %32

31:                                               ; preds = %21
  store i1 false, ptr %2, align 1
  store i32 1, ptr %5, align 4
  br label %32

32:                                               ; preds = %31, %30, %15
  call void @llvm.lifetime.end.p0(i64 8, ptr %4) #4
  %33 = load i1, ptr %2, align 1
  ret i1 %33
}