; Function Attrs: nounwind uwtable
define internal fastcc zeroext i1 @is_slider_horizontal(ptr noundef %0) unnamed_addr #0 {
  %2 = getelementptr inbounds nuw i8, ptr %0, i64 152
  %3 = load i8, ptr %2, align 8
  %4 = lshr i8 %3, 3
  %5 = and i8 %4, 7
  switch i8 %5, label %10 [
    i8 0, label %6
    i8 1, label %11
  ]

6:                                                ; preds = %1
  %7 = tail call i32 @lv_obj_get_width(ptr noundef nonnull %0) #5
  %8 = tail call i32 @lv_obj_get_height(ptr noundef nonnull %0) #5
  %9 = icmp sge i32 %7, %8
  br label %11

10:                                               ; preds = %1
  br label %11

11:                                               ; preds = %1, %10, %6
  %.0 = phi i1 [ %9, %6 ], [ false, %10 ], [ true, %1 ]
  ret i1 %.0
}